(lp0
(dp1
(I124
tp2
I1072
s(I162
tp3
I705
s(I99
tp4
I276
s(I74
tp5
I324
s(I49
tp6
I84
s(I24
tp7
I106
s(I116
tp8
I163
s(I15
tp9
I638
s(I91
tp10
I254
s(I129
tp11
I372
s(I66
tp12
I220
s(I41
tp13
I524
s(I16
tp14
I545
s(I108
tp15
I91
s(I7
tp16
I174
s(I146
tp17
I84
s(I83
tp18
I109
s(I33
tp19
I112
s(I100
tp20
I305
s(I75
tp21
I246
s(I50
tp22
I624
s(I25
tp23
I229
s(I0
tp24
I79
s(I17
tp25
I275
s(I109
tp26
I176
s(I147
tp27
I299
s(I84
tp28
I78
s(I59
tp29
I106
s(I9
tp30
I516
s(I164
tp31
I414
s(I139
tp32
I1715
s(I76
tp33
I73
s(I1
tp34
I329
s(I93
tp35
I279
s(I131
tp36
I924
s(I68
tp37
I256
s(I18
tp38
I130
s(I110
tp39
I744
s(I60
tp40
I115
s(I35
tp41
I571
s(I10
tp42
I327
s(I165
tp43
I187
s(I140
tp44
I168
s(I52
tp45
I64
s(I27
tp46
I207
s(I94
tp47
I118
s(I132
tp48
I140
s(I69
tp49
I327
s(I120
tp50
I189
s(I19
tp51
I88
s(I111
tp52
I71
s(I86
tp53
I368
s(I36
tp54
I101
s(I112
tp55
I567
s(I11
tp56
I256
s(I166
tp57
I2513
s(I103
tp58
I1903
s(I28
tp59
I422
s(I104
tp60
I128
s(I158
tp61
I1032
s(I95
tp62
I515
s(I133
tp63
I174
s(I70
tp64
I241
s(I45
tp65
I365
s(I121
tp66
I75
s(I20
tp67
I294
s(I96
tp68
I785
s(I62
tp69
I279
s(I12
tp70
I792
s(I167
tp71
I1372
s(I54
tp72
I171
s(I29
tp73
I488
s(I168
tp74
I68
s(I105
tp75
I148
s(I159
tp76
I80
s(I134
tp77
I969
s(I71
tp78
I160
s(I46
tp79
I189
s(I122
tp80
I101
s(I21
tp81
I764
s(I160
tp82
I64
s(I151
tp83
I110
s(I63
tp84
I83
s(I114
tp85
I170
s(I13
tp86
I1087
s(I152
tp87
I333
s(I89
tp88
I576
s(I143
tp89
I67
s(I64
tp90
I473
s(I55
tp91
I102
s(I30
tp92
I89
s(I106
tp93
I875
s(I47
tp94
I103
s(I123
tp95
I1809
s(I22
tp96
I148
s(I161
tp97
I378
s(I136
tp98
I241
s(I73
tp99
I82
s(I48
tp100
I173
s(I153
tp101
I89
s(I90
tp102
I90
s(I128
tp103
I106
s(I65
tp104
I711
s(I40
tp105
I390
s(I31
tp106
I814
s(I107
tp107
I93
s(I145
tp108
I269
s(I57
tp109
I580
sa(dp110
(I50
I96
tp111
I68
s(I70
I103
tp112
I93
s(I103
I134
tp113
I228
s(I89
I166
tp114
I238
s(I28
I162
tp115
I71
s(I41
I158
tp116
I101
s(I129
I139
tp117
I92
s(I50
I167
tp118
I141
s(I10
I158
tp119
I66
s(I13
I131
tp120
I118
s(I139
I162
tp121
I114
s(I96
I158
tp122
I116
s(I65
I96
tp123
I81
s(I45
I139
tp124
I97
s(I35
I123
tp125
I108
s(I89
I106
tp126
I67
s(I96
I123
tp127
I194
s(I9
I123
tp128
I134
s(I74
I139
tp129
I69
s(I16
I106
tp130
I75
s(I139
I158
tp131
I205
s(I103
I161
tp132
I99
s(I86
I123
tp133
I78
s(I57
I139
tp134
I111
s(I31
I162
tp135
I107
s(I99
I103
tp136
I98
s(I106
I139
tp137
I207
s(I106
I112
tp138
I62
s(I25
I103
tp139
I64
s(I123
I167
tp140
I338
s(I129
I166
tp141
I110
s(I15
I103
tp142
I184
s(I31
I89
tp143
I78
s(I110
I124
tp144
I153
s(I134
I167
tp145
I150
s(I95
I167
tp146
I121
s(I54
I166
tp147
I83
s(I9
I124
tp148
I171
s(I96
I139
tp149
I144
s(I12
I124
tp150
I95
s(I50
I139
tp151
I122
s(I124
I134
tp152
I126
s(I10
I166
tp153
I116
s(I16
I29
tp154
I61
s(I45
I123
tp155
I67
s(I9
I139
tp156
I80
s(I106
I123
tp157
I206
s(I95
I134
tp158
I71
s(I106
I166
tp159
I327
s(I134
I158
tp160
I133
s(I45
I166
tp161
I135
s(I100
I123
tp162
I67
s(I40
I124
tp163
I74
s(I123
I136
tp164
I75
s(I124
I167
tp165
I254
s(I12
I123
tp166
I134
s(I50
I103
tp167
I219
s(I103
I139
tp168
I322
s(I50
I65
tp169
I79
s(I10
I139
tp170
I72
s(I106
I161
tp171
I69
s(I1
I103
tp172
I80
s(I35
I110
tp173
I68
s(I124
I158
tp174
I207
s(I17
I103
tp175
I102
s(I7
I103
tp176
I72
s(I89
I103
tp177
I194
s(I9
I112
tp178
I75
s(I13
I106
tp179
I88
s(I31
I167
tp180
I213
s(I152
I167
tp181
I68
s(I110
I166
tp182
I296
s(I103
I158
tp183
I353
s(I13
I167
tp184
I226
s(I35
I134
tp185
I92
s(I41
I166
tp186
I257
s(I66
I166
tp187
I72
s(I139
I164
tp188
I101
s(I95
I103
tp189
I142
s(I46
I103
tp190
I63
s(I123
I134
tp191
I192
s(I10
I124
tp192
I65
s(I110
I123
tp193
I137
s(I134
I162
tp194
I78
s(I62
I103
tp195
I74
s(I31
I134
tp196
I96
s(I89
I139
tp197
I100
s(I71
I124
tp198
I69
s(I21
I134
tp199
I112
s(I15
I123
tp200
I124
s(I131
I162
tp201
I89
s(I69
I166
tp202
I145
s(I103
I109
tp203
I63
s(I112
I123
tp204
I111
s(I12
I131
tp205
I77
s(I158
I166
tp206
I416
s(I1
I13
tp207
I72
s(I68
I167
tp208
I66
s(I91
I103
tp209
I98
s(I96
I106
tp210
I83
s(I69
I123
tp211
I85
s(I65
I139
tp212
I181
s(I9
I167
tp213
I115
s(I112
I134
tp214
I63
s(I147
I166
tp215
I79
s(I103
I140
tp216
I70
s(I136
I167
tp217
I79
s(I15
I110
tp218
I75
s(I31
I64
tp219
I65
s(I145
I166
tp220
I64
s(I31
I110
tp221
I136
s(I28
I124
tp222
I107
s(I29
I106
tp223
I79
s(I100
I167
tp224
I71
s(I50
I166
tp225
I295
s(I124
I161
tp226
I65
s(I15
I50
tp227
I67
s(I35
I167
tp228
I96
s(I65
I106
tp229
I84
s(I112
I167
tp230
I94
s(I64
I167
tp231
I122
s(I65
I166
tp232
I262
s(I31
I35
tp233
I63
s(I28
I167
tp234
I82
s(I29
I166
tp235
I164
s(I57
I158
tp236
I93
s(I35
I131
tp237
I68
s(I50
I89
tp238
I82
s(I13
I35
tp239
I72
s(I13
I134
tp240
I108
s(I139
I161
tp241
I94
s(I28
I123
tp242
I95
s(I13
I162
tp243
I86
s(I123
I131
tp244
I301
s(I57
I106
tp245
I82
s(I64
I123
tp246
I100
s(I89
I158
tp247
I92
s(I40
I139
tp248
I67
s(I103
I164
tp249
I135
s(I13
I89
tp250
I101
s(I86
I158
tp251
I62
s(I100
I124
tp252
I93
s(I110
I164
tp253
I65
s(I13
I15
tp254
I81
s(I103
I152
tp255
I106
s(I57
I167
tp256
I110
s(I15
I124
tp257
I100
s(I15
I106
tp258
I95
s(I123
I162
tp259
I144
s(I139
I166
tp260
I394
s(I62
I166
tp261
I97
s(I29
I124
tp262
I63
s(I164
I166
tp263
I168
s(I70
I166
tp264
I99
s(I123
I152
tp265
I69
s(I13
I16
tp266
I88
s(I15
I139
tp267
I124
s(I89
I110
tp268
I84
s(I16
I110
tp269
I72
s(I10
I162
tp270
I89
s(I65
I158
tp271
I135
s(I12
I65
tp272
I69
s(I124
I139
tp273
I183
s(I29
I158
tp274
I80
s(I95
I110
tp275
I66
s(I86
I166
tp276
I133
s(I25
I166
tp277
I87
s(I131
I158
tp278
I137
s(I13
I123
tp279
I238
s(I41
I139
tp280
I80
s(I131
I164
tp281
I71
s(I106
I124
tp282
I108
s(I9
I13
tp283
I61
s(I12
I167
tp284
I91
s(I54
I103
tp285
I62
s(I158
I164
tp286
I86
s(I28
I103
tp287
I176
s(I41
I89
tp288
I62
s(I9
I96
tp289
I63
s(I124
I164
tp290
I78
s(I112
I162
tp291
I81
s(I109
I166
tp292
I70
s(I16
I123
tp293
I132
s(I64
I162
tp294
I78
s(I31
I103
tp295
I284
s(I112
I158
tp296
I84
s(I74
I167
tp297
I72
s(I28
I64
tp298
I66
s(I50
I106
tp299
I89
s(I106
I162
tp300
I74
s(I65
I110
tp301
I94
s(I161
I167
tp302
I74
s(I57
I103
tp303
I162
s(I96
I134
tp304
I68
s(I1
I167
tp305
I73
s(I28
I50
tp306
I61
s(I16
I31
tp307
I90
s(I28
I139
tp308
I82
s(I65
I164
tp309
I73
s(I89
I167
tp310
I140
s(I106
I110
tp311
I105
s(I13
I139
tp312
I285
s(I106
I131
tp313
I123
s(I16
I167
tp314
I144
s(I95
I139
tp315
I118
s(I17
I166
tp316
I114
s(I103
I123
tp317
I419
s(I1
I123
tp318
I63
s(I57
I134
tp319
I81
s(I15
I31
tp320
I82
s(I96
I167
tp321
I151
s(I40
I103
tp322
I135
s(I13
I158
tp323
I182
s(I13
I21
tp324
I79
s(I162
I167
tp325
I204
s(I103
I166
tp326
I736
s(I29
I131
tp327
I65
s(I13
I64
tp328
I61
s(I158
I162
tp329
I136
s(I103
I106
tp330
I222
s(I16
I158
tp331
I98
s(I103
I112
tp332
I213
s(I129
I167
tp333
I61
s(I95
I158
tp334
I99
s(I134
I166
tp335
I241
s(I114
I166
tp336
I68
s(I12
I158
tp337
I81
s(I15
I89
tp338
I64
s(I9
I162
tp339
I66
s(I112
I131
tp340
I64
s(I93
I139
tp341
I72
s(I131
I166
tp342
I294
s(I31
I57
tp343
I64
s(I16
I50
tp344
I95
s(I11
I166
tp345
I67
s(I65
I89
tp346
I61
s(I16
I65
tp347
I79
s(I45
I167
tp348
I97
s(I99
I166
tp349
I111
s(I40
I123
tp350
I98
s(I124
I166
tp351
I481
s(I16
I103
tp352
I197
s(I31
I139
tp353
I126
s(I28
I31
tp354
I68
s(I91
I123
tp355
I68
s(I96
I110
tp356
I66
s(I69
I103
tp357
I136
s(I15
I166
tp358
I248
s(I40
I167
tp359
I122
s(I21
I139
tp360
I136
s(I103
I136
tp361
I89
s(I110
I158
tp362
I201
s(I16
I41
tp363
I67
s(I106
I134
tp364
I117
s(I16
I162
tp365
I100
s(I35
I158
tp366
I70
s(I45
I134
tp367
I61
s(I20
I103
tp368
I68
s(I103
I124
tp369
I466
s(I10
I123
tp370
I65
s(I57
I131
tp371
I99
s(I96
I162
tp372
I71
s(I31
I106
tp373
I96
s(I50
I162
tp374
I98
s(I10
I103
tp375
I101
s(I31
I112
tp376
I64
s(I41
I106
tp377
I74
s(I86
I139
tp378
I75
s(I89
I96
tp379
I70
s(I139
I152
tp380
I72
s(I31
I158
tp381
I196
s(I89
I131
tp382
I70
s(I103
I129
tp383
I106
s(I152
I166
tp384
I148
s(I16
I131
tp385
I85
s(I50
I123
tp386
I154
s(I57
I162
tp387
I61
s(I13
I95
tp388
I85
s(I41
I167
tp389
I170
s(I110
I139
tp390
I131
s(I123
I161
tp391
I90
s(I134
I139
tp392
I242
s(I13
I57
tp393
I72
s(I140
I166
tp394
I74
s(I57
I110
tp395
I71
s(I12
I139
tp396
I167
s(I65
I103
tp397
I207
s(I96
I124
tp398
I113
s(I139
I145
tp399
I71
s(I166
I167
tp400
I551
s(I71
I103
tp401
I76
s(I68
I123
tp402
I68
s(I45
I103
tp403
I114
s(I35
I166
tp404
I184
s(I68
I166
tp405
I113
s(I31
I50
tp406
I102
s(I7
I166
tp407
I91
s(I69
I167
tp408
I64
s(I123
I166
tp409
I557
s(I31
I65
tp410
I102
s(I86
I167
tp411
I86
s(I134
I164
tp412
I73
s(I95
I166
tp413
I194
s(I50
I57
tp414
I69
s(I12
I103
tp415
I159
s(I57
I89
tp416
I63
s(I21
I166
tp417
I87
s(I69
I124
tp418
I61
s(I95
I106
tp419
I69
s(I100
I103
tp420
I140
s(I40
I162
tp421
I63
s(I74
I103
tp422
I94
s(I15
I65
tp423
I82
s(I136
I166
tp424
I106
s(I65
I95
tp425
I68
s(I106
I167
tp426
I174
s(I89
I123
tp427
I145
s(I123
I139
tp428
I377
s(I16
I89
tp429
I66
s(I96
I131
tp430
I79
s(I13
I31
tp431
I133
s(I41
I103
tp432
I169
s(I112
I166
tp433
I218
s(I50
I131
tp434
I94
s(I95
I162
tp435
I71
s(I131
I139
tp436
I239
s(I13
I112
tp437
I73
s(I64
I166
tp438
I201
s(I20
I166
tp439
I81
s(I65
I167
tp440
I184
s(I89
I162
tp441
I67
s(I28
I166
tp442
I173
s(I20
I123
tp443
I70
s(I131
I136
tp444
I69
s(I29
I167
tp445
I91
s(I91
I166
tp446
I98
s(I110
I134
tp447
I92
s(I116
I166
tp448
I69
s(I45
I158
tp449
I62
s(I89
I124
tp450
I109
s(I15
I131
tp451
I105
s(I96
I103
tp452
I190
s(I65
I134
tp453
I105
s(I9
I89
tp454
I61
s(I29
I134
tp455
I80
s(I103
I131
tp456
I265
s(I31
I166
tp457
I300
s(I31
I41
tp458
I70
s(I41
I131
tp459
I75
s(I110
I167
tp460
I177
s(I20
I139
tp461
I85
s(I13
I166
tp462
I338
s(I9
I158
tp463
I75
s(I139
I167
tp464
I269
s(I62
I139
tp465
I61
s(I31
I123
tp466
I165
s(I35
I124
tp467
I72
s(I64
I158
tp468
I86
s(I139
I147
tp469
I62
s(I103
I162
tp470
I284
s(I41
I123
tp471
I99
s(I28
I158
tp472
I63
s(I31
I96
tp473
I82
s(I25
I167
tp474
I61
s(I13
I124
tp475
I154
s(I15
I96
tp476
I75
s(I12
I166
tp477
I201
s(I112
I124
tp478
I134
s(I123
I158
tp479
I242
s(I21
I103
tp480
I89
s(I158
I167
tp481
I288
s(I89
I112
tp482
I63
s(I100
I166
tp483
I119
s(I64
I110
tp484
I72
s(I41
I124
tp485
I107
s(I40
I158
tp486
I71
s(I64
I139
tp487
I85
s(I50
I134
tp488
I89
s(I13
I50
tp489
I90
s(I9
I166
tp490
I209
s(I95
I124
tp491
I98
s(I64
I112
tp492
I63
s(I86
I103
tp493
I105
s(I41
I50
tp494
I64
s(I95
I131
tp495
I66
s(I15
I158
tp496
I105
s(I9
I106
tp497
I62
s(I124
I162
tp498
I168
s(I124
I152
tp499
I63
s(I66
I103
tp500
I89
s(I65
I131
tp501
I99
s(I13
I110
tp502
I104
s(I29
I139
tp503
I133
s(I95
I123
tp504
I115
s(I99
I124
tp505
I69
s(I50
I124
tp506
I141
s(I110
I162
tp507
I91
s(I16
I166
tp508
I271
s(I65
I86
tp509
I61
s(I17
I167
tp510
I84
s(I41
I162
tp511
I103
s(I15
I57
tp512
I70
s(I96
I166
tp513
I269
s(I123
I164
tp514
I64
s(I64
I124
tp515
I114
s(I31
I124
tp516
I174
s(I162
I166
tp517
I317
s(I41
I110
tp518
I77
s(I103
I167
tp519
I427
s(I46
I166
tp520
I88
s(I13
I103
tp521
I244
s(I95
I96
tp522
I61
s(I13
I65
tp523
I140
s(I112
I139
tp524
I117
s(I57
I166
tp525
I202
s(I35
I139
tp526
I98
s(I29
I65
tp527
I67
s(I62
I167
tp528
I61
s(I31
I95
tp529
I75
s(I29
I123
tp530
I116
s(I164
I167
tp531
I89
s(I70
I167
tp532
I63
s(I71
I166
tp533
I76
s(I65
I123
tp534
I143
s(I96
I112
tp535
I65
s(I31
I131
tp536
I111
s(I13
I96
tp537
I111
s(I68
I103
tp538
I90
s(I74
I158
tp539
I66
s(I50
I110
tp540
I85
s(I21
I131
tp541
I62
s(I131
I167
tp542
I193
s(I93
I166
tp543
I69
s(I103
I110
tp544
I257
s(I106
I158
tp545
I130
s(I21
I123
tp546
I111
s(I57
I123
tp547
I189
s(I65
I124
tp548
I118
s(I35
I103
tp549
I132
s(I1
I139
tp550
I75
s(I9
I103
tp551
I194
s(I29
I31
tp552
I63
s(I124
I131
tp553
I147
s(I16
I124
tp554
I127
s(I10
I167
tp555
I104
s(I15
I167
tp556
I143
s(I131
I134
tp557
I154
s(I40
I166
tp558
I162
s(I50
I158
tp559
I112
s(I65
I162
tp560
I89
s(I16
I139
tp561
I87
s(I161
I166
tp562
I125
s(I9
I31
tp563
I83
s(I110
I131
tp564
I106
s(I57
I124
tp565
I100
s(I64
I65
tp566
I77
s(I29
I103
tp567
I125
s(I133
I166
tp568
I70
s(I74
I166
tp569
I126
s(I64
I103
tp570
I175
s(I12
I13
tp571
I155
s(I15
I134
tp572
I91
s(I17
I123
tp573
I75
s(I123
I124
tp574
I239
s(I35
I106
tp575
I68
sa(dp576
(I139
I158
I166
tp577
I77
s(I124
I162
I167
tp578
I63
s(I162
I166
I167
tp579
I107
s(I103
I124
I139
tp580
I81
s(I103
I123
I167
tp581
I113
s(I65
I103
I158
tp582
I65
s(I103
I158
I166
tp583
I168
s(I158
I162
I166
tp584
I78
s(I31
I124
I166
tp585
I90
s(I15
I166
I167
tp586
I70
s(I103
I139
I166
tp587
I137
s(I41
I158
I166
tp588
I64
s(I50
I166
I167
tp589
I76
s(I41
I103
I166
tp590
I97
s(I31
I158
I166
tp591
I89
s(I13
I103
I166
tp592
I106
s(I35
I103
I166
tp593
I63
s(I106
I123
I166
tp594
I84
s(I103
I152
I166
tp595
I62
s(I103
I110
I158
tp596
I93
s(I103
I131
I167
tp597
I80
s(I13
I123
I139
tp598
I67
s(I124
I162
I166
tp599
I93
s(I16
I123
I166
tp600
I65
s(I123
I124
I166
tp601
I125
s(I13
I123
I166
tp602
I86
s(I110
I158
I167
tp603
I63
s(I103
I112
I166
tp604
I100
s(I134
I139
I166
tp605
I67
s(I9
I103
I124
tp606
I78
s(I13
I158
I166
tp607
I79
s(I13
I139
I167
tp608
I73
s(I50
I123
I166
tp609
I65
s(I16
I103
I167
tp610
I63
s(I103
I110
I167
tp611
I80
s(I64
I103
I166
tp612
I95
s(I124
I139
I166
tp613
I80
s(I103
I110
I124
tp614
I80
s(I103
I166
I167
tp615
I219
s(I16
I103
I124
tp616
I65
s(I123
I139
I166
tp617
I87
s(I28
I103
I166
tp618
I83
s(I106
I166
I167
tp619
I90
s(I158
I162
I167
tp620
I61
s(I103
I123
I158
tp621
I77
s(I123
I166
I167
tp622
I153
s(I124
I166
I167
tp623
I143
s(I96
I123
I166
tp624
I75
s(I50
I158
I166
tp625
I68
s(I50
I103
I166
tp626
I121
s(I16
I124
I166
tp627
I81
s(I13
I166
I167
tp628
I95
s(I124
I158
I167
tp629
I80
s(I65
I103
I166
tp630
I103
s(I31
I103
I166
tp631
I128
s(I41
I166
I167
tp632
I99
s(I9
I123
I166
tp633
I67
s(I65
I166
I167
tp634
I93
s(I103
I162
I167
tp635
I100
s(I103
I106
I166
tp636
I104
s(I103
I124
I167
tp637
I127
s(I31
I166
I167
tp638
I101
s(I13
I103
I123
tp639
I72
s(I89
I166
I167
tp640
I69
s(I96
I103
I166
tp641
I82
s(I13
I103
I158
tp642
I61
s(I57
I103
I166
tp643
I75
s(I103
I124
I134
tp644
I65
s(I158
I166
I167
tp645
I149
s(I31
I123
I166
tp646
I71
s(I103
I123
I124
tp647
I120
s(I41
I124
I166
tp648
I61
s(I16
I162
I166
tp649
I66
s(I112
I123
I166
tp650
I61
s(I95
I103
I166
tp651
I67
s(I139
I158
I167
tp652
I65
s(I103
I124
I131
tp653
I67
s(I103
I123
I131
tp654
I87
s(I103
I139
I158
tp655
I71
s(I103
I123
I166
tp656
I176
s(I106
I139
I166
tp657
I81
s(I89
I123
I166
tp658
I78
s(I9
I124
I166
tp659
I79
s(I103
I139
I167
tp660
I82
s(I69
I103
I166
tp661
I62
s(I103
I158
I162
tp662
I77
s(I103
I158
I167
tp663
I121
s(I31
I162
I166
tp664
I62
s(I13
I103
I167
tp665
I80
s(I103
I123
I162
tp666
I66
s(I110
I123
I166
tp667
I61
s(I31
I103
I124
tp668
I102
s(I50
I103
I124
tp669
I72
s(I65
I103
I124
tp670
I65
s(I103
I123
I139
tp671
I97
s(I89
I103
I166
tp672
I91
s(I139
I166
I167
tp673
I103
s(I103
I112
I124
tp674
I69
s(I123
I158
I167
tp675
I86
s(I16
I166
I167
tp676
I92
s(I103
I131
I139
tp677
I71
s(I13
I123
I167
tp678
I70
s(I103
I131
I166
tp679
I100
s(I40
I166
I167
tp680
I65
s(I123
I124
I167
tp681
I71
s(I16
I103
I166
tp682
I113
s(I110
I158
I166
tp683
I83
s(I103
I110
I166
tp684
I133
s(I31
I158
I167
tp685
I62
s(I13
I158
I167
tp686
I70
s(I13
I139
I166
tp687
I74
s(I131
I166
I167
tp688
I86
s(I13
I124
I166
tp689
I72
s(I110
I124
I166
tp690
I88
s(I106
I158
I166
tp691
I66
s(I123
I139
I167
tp692
I85
s(I123
I131
I139
tp693
I95
s(I15
I103
I166
tp694
I92
s(I103
I124
I158
tp695
I121
s(I131
I139
I166
tp696
I66
s(I31
I103
I158
tp697
I89
s(I65
I124
I166
tp698
I64
s(I100
I103
I166
tp699
I65
s(I103
I124
I162
tp700
I84
s(I64
I124
I166
tp701
I61
s(I65
I103
I167
tp702
I81
s(I124
I131
I166
tp703
I76
s(I123
I158
I166
tp704
I108
s(I31
I103
I167
tp705
I75
s(I124
I158
I166
tp706
I118
s(I123
I134
I139
tp707
I62
s(I103
I134
I166
tp708
I75
s(I96
I166
I167
tp709
I65
s(I103
I162
I166
tp710
I144
s(I123
I131
I166
tp711
I92
s(I103
I124
I166
tp712
I228
s(I13
I103
I124
tp713
I69
s(I9
I103
I166
tp714
I91
s(I16
I158
I166
tp715
I61
s(I103
I106
I167
tp716
I65
s(I131
I158
I166
tp717
I71
s(I110
I166
I167
tp718
I94
s(I112
I124
I166
tp719
I67
s(I12
I103
I166
tp720
I75
s(I123
I162
I166
tp721
I77
s(I40
I103
I166
tp722
I66
s(I50
I124
I166
tp723
I84
s(I57
I166
I167
tp724
I61
sa(dp725
(I103
I123
I124
I166
tp726
I61
s(I103
I158
I166
I167
tp727
I75
s(I103
I124
I158
I166
tp728
I69
s(I103
I124
I166
I167
tp729
I77
sa.