(dp0
I0
S'Instant food products'
p1
sI1
S'UHT-milk'
p2
sI2
S'abrasive cleaner'
p3
sI3
S'artif. sweetener'
p4
sI4
S'baby cosmetics'
p5
sI5
S'baby food'
p6
sI6
S'bags'
p7
sI7
S'baking powder'
p8
sI8
S'bathroom cleaner'
p9
sI9
S'beef'
p10
sI10
S'berries'
p11
sI11
S'beverages'
p12
sI12
S'bottled beer'
p13
sI13
S'bottled water'
p14
sI14
S'brandy'
p15
sI15
S'brown bread'
p16
sI16
S'butter'
p17
sI17
S'butter milk'
p18
sI18
S'cake bar'
p19
sI19
S'candles'
p20
sI20
S'candy'
p21
sI21
S'canned beer'
p22
sI22
S'canned fish'
p23
sI23
S'canned fruit'
p24
sI24
S'canned vegetables'
p25
sI25
S'cat food'
p26
sI26
S'cereals'
p27
sI27
S'chewing gum'
p28
sI28
S'chicken'
p29
sI29
S'chocolate'
p30
sI30
S'chocolate marshmallow'
p31
sI31
S'citrus fruit'
p32
sI32
S'cleaner'
p33
sI33
S'cling film/bags'
p34
sI34
S'cocoa drinks'
p35
sI35
S'coffee'
p36
sI36
S'condensed milk'
p37
sI37
S'cooking chocolate'
p38
sI38
S'cookware'
p39
sI39
S'cream'
p40
sI40
S'cream cheese'
p41
sI41
S'curd'
p42
sI42
S'curd cheese'
p43
sI43
S'decalcifier'
p44
sI44
S'dental care'
p45
sI45
S'dessert'
p46
sI46
S'detergent'
p47
sI47
S'dish cleaner'
p48
sI48
S'dishes'
p49
sI49
S'dog food'
p50
sI50
S'domestic eggs'
p51
sI51
S'female sanitary products'
p52
sI52
S'finished products'
p53
sI53
S'fish'
p54
sI54
S'flour'
p55
sI55
S'flower (seeds)'
p56
sI56
S'flower soil/fertilizer'
p57
sI57
S'frankfurter'
p58
sI58
S'frozen chicken'
p59
sI59
S'frozen dessert'
p60
sI60
S'frozen fish'
p61
sI61
S'frozen fruits'
p62
sI62
S'frozen meals'
p63
sI63
S'frozen potato products'
p64
sI64
S'frozen vegetables'
p65
sI65
S'fruit/vegetable juice'
p66
sI66
S'grapes'
p67
sI67
S'hair spray'
p68
sI68
S'ham'
p69
sI69
S'hamburger meat'
p70
sI70
S'hard cheese'
p71
sI71
S'herbs'
p72
sI72
S'honey'
p73
sI73
S'house keeping products'
p74
sI74
S'hygiene articles'
p75
sI75
S'ice cream'
p76
sI76
S'instant coffee'
p77
sI77
S'jam'
p78
sI78
S'ketchup'
p79
sI79
S'kitchen towels'
p80
sI80
S'kitchen utensil'
p81
sI81
S'light bulbs'
p82
sI82
S'liqueur'
p83
sI83
S'liquor'
p84
sI84
S'liquor (appetizer)'
p85
sI85
S'liver loaf'
p86
sI86
S'long life bakery product'
p87
sI87
S'make up remover'
p88
sI88
S'male cosmetics'
p89
sI89
S'margarine'
p90
sI90
S'mayonnaise'
p91
sI91
S'meat'
p92
sI92
S'meat spreads'
p93
sI93
S'misc. beverages'
p94
sI94
S'mustard'
p95
sI95
S'napkins'
p96
sI96
S'newspapers'
p97
sI97
S'nut snack'
p98
sI98
S'nuts/prunes'
p99
sI99
S'oil'
p100
sI100
S'onions'
p101
sI101
S'organic products'
p102
sI102
S'organic sausage'
p103
sI103
S'other vegetables'
p104
sI104
S'packaged fruit/vegetables'
p105
sI105
S'pasta'
p106
sI106
S'pastry'
p107
sI107
S'pet care'
p108
sI108
S'photo/film'
p109
sI109
S'pickled vegetables'
p110
sI110
S'pip fruit'
p111
sI111
S'popcorn'
p112
sI112
S'pork'
p113
sI113
S'potato products'
p114
sI114
S'potted plants'
p115
sI115
S'preservation products'
p116
sI116
S'processed cheese'
p117
sI117
S'prosecco'
p118
sI118
S'pudding powder'
p119
sI119
S'ready soups'
p120
sI120
S'red/blush wine'
p121
sI121
S'rice'
p122
sI122
S'roll products'
p123
sI123
S'rolls/buns'
p124
sI124
S'root vegetables'
p125
sI125
S'rubbing alcohol'
p126
sI126
S'rum'
p127
sI127
S'salad dressing'
p128
sI128
S'salt'
p129
sI129
S'salty snack'
p130
sI130
S'sauces'
p131
sI131
S'sausage'
p132
sI132
S'seasonal products'
p133
sI133
S'semi-finished bread'
p134
sI134
S'shopping bags'
p135
sI135
S'skin care'
p136
sI136
S'sliced cheese'
p137
sI137
S'snack products'
p138
sI138
S'soap'
p139
sI139
S'soda'
p140
sI140
S'soft cheese'
p141
sI141
S'softener'
p142
sI142
S'sound storage medium'
p143
sI143
S'soups'
p144
sI144
S'sparkling wine'
p145
sI145
S'specialty bar'
p146
sI146
S'specialty cheese'
p147
sI147
S'specialty chocolate'
p148
sI148
S'specialty fat'
p149
sI149
S'specialty vegetables'
p150
sI150
S'spices'
p151
sI151
S'spread cheese'
p152
sI152
S'sugar'
p153
sI153
S'sweet spreads'
p154
sI154
S'syrup'
p155
sI155
S'tea'
p156
sI156
S'tidbits'
p157
sI157
S'toilet cleaner'
p158
sI158
S'tropical fruit'
p159
sI159
S'turkey'
p160
sI160
S'vinegar'
p161
sI161
S'waffles'
p162
sI162
S'whipped/sour cream'
p163
sI163
S'whisky'
p164
sI164
S'white bread'
p165
sI165
S'white wine'
p166
sI166
S'whole milk'
p167
sI167
S'yogurt'
p168
sI168
S'zwieback'
p169
s.